; Function Attrs: mustprogress uwtable
define void @_ZN10BigIntegermmEi(ptr noundef nonnull align 8 dereferenceable(24) %0, i32 noundef %1) local_unnamed_addr #0 align 2 personality ptr @__gxx_personality_v0 {
  %3 = alloca %class.BigUnsigned, align 8
  %4 = load i32, ptr %0, align 8, !tbaa !6
  %5 = icmp eq i32 %4, 1
  %6 = getelementptr inbounds nuw i8, ptr %0, i64 8
  br i1 %5, label %7, label %25

7:                                                ; preds = %2
  tail call void @_ZN11BigUnsignedmmEi(ptr noundef nonnull align 8 dereferenceable(16) %6, i32 noundef 0)
  call void @llvm.lifetime.start.p0(i64 16, ptr nonnull %3) #11
  call void @_ZN11BigUnsignedC1Ei(ptr noundef nonnull align 8 dereferenceable(16) %3, i32 noundef 0)
  %8 = getelementptr inbounds nuw i8, ptr %0, i64 12
  %9 = load i32, ptr %8, align 4, !tbaa !16
  %10 = getelementptr inbounds nuw i8, ptr %3, i64 4
  %11 = load i32, ptr %10, align 4, !tbaa !16
  %.not.i.i.i = icmp eq i32 %9, %11
  br i1 %.not.i.i.i, label %.preheader.i.i.i, label %_ZNK11BigUnsignedeqERKS_.exit.i

.preheader.i.i.i:                                 ; preds = %7
  %.not910.not.i.i.i = icmp eq i32 %9, 0
  br i1 %.not910.not.i.i.i, label %_ZNK11BigUnsignedeqERKS_.exit.i, label %.lr.ph.i.i.i

.lr.ph.i.i.i:                                     ; preds = %.preheader.i.i.i
  %12 = getelementptr inbounds nuw i8, ptr %0, i64 16
  %13 = load ptr, ptr %12, align 8, !tbaa !18
  %14 = getelementptr inbounds nuw i8, ptr %3, i64 8
  %15 = load ptr, ptr %14, align 8, !tbaa !18
  %wide.trip.count.i.i.i = zext i32 %9 to i64
  br label %16

16:                                               ; preds = %16, %.lr.ph.i.i.i
  %indvars.iv.i.i.i = phi i64 [ 0, %.lr.ph.i.i.i ], [ %indvars.iv.next.i.i.i, %16 ]
  %17 = getelementptr inbounds nuw i64, ptr %13, i64 %indvars.iv.i.i.i
  %18 = load i64, ptr %17, align 8, !tbaa !19
  %19 = getelementptr inbounds nuw i64, ptr %15, i64 %indvars.iv.i.i.i
  %20 = load i64, ptr %19, align 8, !tbaa !19
  %.not8.i.i.i = icmp eq i64 %18, %20
  %indvars.iv.next.i.i.i = add nuw nsw i64 %indvars.iv.i.i.i, 1
  %exitcond.not.i.i.i = icmp ne i64 %indvars.iv.next.i.i.i, %wide.trip.count.i.i.i
  %or.cond.not = select i1 %.not8.i.i.i, i1 %exitcond.not.i.i.i, i1 false
  br i1 %or.cond.not, label %16, label %_ZNK11BigUnsignedeqERKS_.exit.i, !llvm.loop !27

_ZNK11BigUnsignedeqERKS_.exit.i:                  ; preds = %16, %.preheader.i.i.i, %7
  %.07.i.i.i = phi i1 [ false, %7 ], [ true, %.preheader.i.i.i ], [ %.not8.i.i.i, %16 ]
  %21 = getelementptr inbounds nuw i8, ptr %3, i64 8
  %22 = load ptr, ptr %21, align 8, !tbaa !18
  %23 = icmp eq ptr %22, null
  br i1 %23, label %_ZN15NumberlikeArrayImED2Ev.exit.i, label %24

24:                                               ; preds = %_ZNK11BigUnsignedeqERKS_.exit.i
  call void @_ZdaPv(ptr noundef nonnull %22) #9
  br label %_ZN15NumberlikeArrayImED2Ev.exit.i

_ZN15NumberlikeArrayImED2Ev.exit.i:               ; preds = %24, %_ZNK11BigUnsignedeqERKS_.exit.i
  call void @llvm.lifetime.end.p0(i64 16, ptr nonnull %3) #11
  br i1 %.07.i.i.i, label %.sink.split.i, label %_ZN10BigIntegermmEv.exit

25:                                               ; preds = %2
  tail call void @_ZN11BigUnsignedppEi(ptr noundef nonnull align 8 dereferenceable(16) %6, i32 noundef 0)
  br label %.sink.split.i

.sink.split.i:                                    ; preds = %25, %_ZN15NumberlikeArrayImED2Ev.exit.i
  %.sink.i = phi i32 [ -1, %25 ], [ 0, %_ZN15NumberlikeArrayImED2Ev.exit.i ]
  store i32 %.sink.i, ptr %0, align 8, !tbaa !6
  br label %_ZN10BigIntegermmEv.exit

_ZN10BigIntegermmEv.exit:                         ; preds = %_ZN15NumberlikeArrayImED2Ev.exit.i, %.sink.split.i
  ret void
}